; Function Attrs: nounwind uwtable
define ptr @l_Lean_Meta_transformWithCache_visit_visitLet___at_Lean_Elab_getFixedParamsInfo___spec__14___lambda__1___boxed(ptr noundef %0, ptr noundef %1, ptr noundef %2, ptr noundef %3, ptr noundef %4, ptr noundef %5, ptr noundef %6, ptr noundef %7, ptr noundef %8, ptr noundef %9, ptr noundef %10, ptr noundef %11, ptr noundef %12, ptr noundef %13, ptr noundef %14) #1 {
  %16 = ptrtoint ptr %3 to i64
  %17 = and i64 %16, 1
  %.not = icmp eq i64 %17, 0
  br i1 %.not, label %18, label %lean_dec.exit19

18:                                               ; preds = %15
  %19 = load i32, ptr %3, align 4, !tbaa !4
  %20 = icmp sgt i32 %19, 1
  br i1 %20, label %21, label %23, !prof !11

21:                                               ; preds = %18
  %22 = add nsw i32 %19, -1
  store i32 %22, ptr %3, align 4, !tbaa !4
  br label %lean_dec.exit19

23:                                               ; preds = %18
  %.not.i = icmp eq i32 %19, 0
  br i1 %.not.i, label %lean_dec.exit19, label %24

24:                                               ; preds = %23
  tail call void @lean_dec_ref_cold(ptr noundef nonnull %3) #5
  br label %lean_dec.exit19

lean_dec.exit19:                                  ; preds = %24, %23, %21, %15
  %25 = ptrtoint ptr %4 to i64
  %26 = and i64 %25, 1
  %.not22 = icmp eq i64 %26, 0
  br i1 %.not22, label %27, label %lean_dec.exit

27:                                               ; preds = %lean_dec.exit19
  %28 = load i32, ptr %4, align 4, !tbaa !4
  %29 = icmp sgt i32 %28, 1
  br i1 %29, label %30, label %32, !prof !11

30:                                               ; preds = %27
  %31 = add nsw i32 %28, -1
  store i32 %31, ptr %4, align 4, !tbaa !4
  br label %lean_dec.exit

32:                                               ; preds = %27
  %.not.i20 = icmp eq i32 %28, 0
  br i1 %.not.i20, label %lean_dec.exit, label %33

33:                                               ; preds = %32
  tail call void @lean_dec_ref_cold(ptr noundef nonnull %4) #5
  br label %lean_dec.exit

lean_dec.exit:                                    ; preds = %33, %32, %30, %lean_dec.exit19
  %34 = lshr i64 %25, 1
  %35 = trunc i64 %34 to i8
  %36 = lshr i64 %16, 1
  %37 = trunc i64 %36 to i8
  %38 = tail call ptr @lean_array_push(ptr noundef %0, ptr noundef %8) #5
  %39 = tail call ptr @l_Lean_Meta_transformWithCache_visit_visitLet___at_Lean_Elab_getFixedParamsInfo___spec__14(ptr noundef %1, ptr noundef %2, i8 noundef zeroext %37, i8 noundef zeroext %35, ptr noundef %5, ptr noundef %6, ptr noundef %38, ptr noundef %7, ptr noundef %9, ptr noundef %10, ptr noundef %11, ptr noundef %12, ptr noundef %13, ptr noundef %14)
  ret ptr %39
}